target datalayout = "e-m:e-p270:32:32-p271:32:32-p272:64:64-i64:64-i128:128-f80:128-n8:16:32:64-S128"
target triple = "x86_64-pc-linux-gnu"

%"class.std::__1::unique_ptr" = type { %"class.std::__1::__compressed_pair" }
%"class.std::__1::__compressed_pair" = type { %"struct.std::__1::__compressed_pair_elem" }
%"struct.std::__1::__compressed_pair_elem" = type { ptr }
%"class.mitsuba::Bitmap" = type { %"class.mitsuba::Object.base", %"class.std::__1::unique_ptr", i32, i32, %"struct.mitsuba::Vector", %"class.mitsuba::ref", i8, i8, i8, %"class.mitsuba::Properties" }
%"class.mitsuba::Object.base" = type <{ ptr, %"struct.std::__1::atomic" }>
%"struct.std::__1::atomic" = type { %"struct.std::__1::__atomic_base" }
%"struct.std::__1::__atomic_base" = type { %"struct.std::__1::__atomic_base.0" }
%"struct.std::__1::__atomic_base.0" = type { %"struct.std::__1::__cxx_atomic_impl" }
%"struct.std::__1::__cxx_atomic_impl" = type { %"struct.std::__1::__cxx_atomic_base_impl" }
%"struct.std::__1::__cxx_atomic_base_impl" = type { i32 }
%"struct.mitsuba::Vector" = type { %"struct.drjit::StaticArrayImpl" }
%"struct.drjit::StaticArrayImpl" = type { [2 x i32] }
%"class.mitsuba::ref" = type { ptr }
%"class.mitsuba::Properties" = type { %"class.std::__1::unique_ptr.2" }
%"class.std::__1::unique_ptr.2" = type { %"class.std::__1::__compressed_pair.3" }
%"class.std::__1::__compressed_pair.3" = type { %"struct.std::__1::__compressed_pair_elem.4" }
%"struct.std::__1::__compressed_pair_elem.4" = type { ptr }
%"class.std::__1::basic_string" = type { %"class.std::__1::__compressed_pair.25" }
%"class.std::__1::__compressed_pair.25" = type { %"struct.std::__1::__compressed_pair_elem.26" }
%"struct.std::__1::__compressed_pair_elem.26" = type { %"struct.std::__1::basic_string<char>::__rep" }
%"struct.std::__1::basic_string<char>::__rep" = type { %union.anon }
%union.anon = type { %"struct.std::__1::basic_string<char>::__long" }
%"struct.std::__1::basic_string<char>::__long" = type { %struct.anon.27, i64, ptr }
%struct.anon.27 = type { i64 }
%"class.mitsuba::Struct" = type { %"class.mitsuba::Object.base", %"class.std::__1::vector.11", i8, i32 }
%"class.std::__1::vector.11" = type { ptr, ptr, %"class.std::__1::__compressed_pair.12" }
%"class.std::__1::__compressed_pair.12" = type { %"struct.std::__1::__compressed_pair_elem.13" }
%"struct.std::__1::__compressed_pair_elem.13" = type { ptr }

@_ZN7mitsuba6Bitmap7m_classE = global ptr null, align 8
@.str.10 = private unnamed_addr constant [115 x i8] c"generated/home/dtcxzyw/WorkSpace/Projects/compilers/llvm-opt-benchmark/bench/mitsuba3/mitsuba3/src/core/bitmap.cpp\00", align 1
@.str.14 = private unnamed_addr constant [29 x i8] c"Unknown component format: %d\00", align 1

; Function Attrs: mustprogress nounwind uwtable
define linkonce_odr hidden noundef i64 @_ZNKSt3__16vectorIN7mitsuba6Struct5FieldENS_9allocatorIS3_EEE4sizeB8ne190000Ev(ptr noundef nonnull align 8 dereferenceable(24) %0) #1 comdat align 2 {
  %2 = alloca ptr, align 8
  store ptr %0, ptr %2, align 8
  %3 = load ptr, ptr %2, align 8
  %4 = getelementptr inbounds %"class.std::__1::vector.11", ptr %3, i32 0, i32 1
  %5 = load ptr, ptr %4, align 8
  %6 = getelementptr inbounds %"class.std::__1::vector.11", ptr %3, i32 0, i32 0
  %7 = load ptr, ptr %6, align 8
  %8 = ptrtoint ptr %5 to i64
  %9 = ptrtoint ptr %7 to i64
  %10 = sub i64 %8, %9
  %11 = sdiv exact i64 %10, 88
  ret i64 %11
}

; Function Attrs: mustprogress nounwind uwtable
define linkonce_odr noundef i64 @_ZNK7mitsuba6Struct11field_countEv(ptr noundef nonnull align 8 dereferenceable(48) %0) #1 comdat align 2 {
  %2 = alloca ptr, align 8
  store ptr %0, ptr %2, align 8
  %3 = load ptr, ptr %2, align 8
  %4 = getelementptr inbounds %"class.mitsuba::Struct", ptr %3, i32 0, i32 1
  %5 = call noundef i64 @_ZNKSt3__16vectorIN7mitsuba6Struct5FieldENS_9allocatorIS3_EEE4sizeB8ne190000Ev(ptr noundef nonnull align 8 dereferenceable(24) %4) #29
  ret i64 %5
}

; Function Attrs: mustprogress nounwind uwtable
define linkonce_odr hidden noundef ptr @_ZNK7mitsuba3refINS_6StructEEptEv(ptr noundef nonnull align 8 dereferenceable(8) %0) #1 comdat align 2 {
  %2 = alloca ptr, align 8
  store ptr %0, ptr %2, align 8
  %3 = load ptr, ptr %2, align 8
  %4 = getelementptr inbounds %"class.mitsuba::ref", ptr %3, i32 0, i32 0
  %5 = load ptr, ptr %4, align 8
  ret ptr %5
}

; Function Attrs: mustprogress uwtable
define linkonce_odr noundef i64 @_ZNK7mitsuba6Bitmap13channel_countEv(ptr noundef nonnull align 8 dereferenceable(64) %0) #0 comdat align 2 {
  %2 = alloca ptr, align 8
  store ptr %0, ptr %2, align 8
  %3 = load ptr, ptr %2, align 8
  %4 = getelementptr inbounds %"class.mitsuba::Bitmap", ptr %3, i32 0, i32 5
  %5 = call noundef ptr @_ZNK7mitsuba3refINS_6StructEEptEv(ptr noundef nonnull align 8 dereferenceable(8) %4)
  %6 = call noundef i64 @_ZNK7mitsuba6Struct11field_countEv(ptr noundef nonnull align 8 dereferenceable(48) %5)
  ret i64 %6
}

; Function Attrs: mustprogress uwtable
define noundef i64 @_ZNK7mitsuba6Bitmap15bytes_per_pixelEv(ptr noundef nonnull align 8 dereferenceable(64) %0) #0 align 2 personality ptr @__gxx_personality_v0 {
  %2 = alloca ptr, align 8
  %3 = alloca i64, align 8
  %4 = alloca %"class.std::__1::basic_string", align 8
  %5 = alloca ptr, align 8
  %6 = alloca i32, align 4
  store ptr %0, ptr %2, align 8
  %7 = load ptr, ptr %2, align 8
  %8 = getelementptr inbounds %"class.mitsuba::Bitmap", ptr %7, i32 0, i32 3
  %9 = load i32, ptr %8, align 4
  switch i32 %9, label %17 [
    i32 2, label %10
    i32 1, label %10
    i32 4, label %11
    i32 3, label %11
    i32 6, label %12
    i32 5, label %12
    i32 8, label %13
    i32 7, label %13
    i32 9, label %14
    i32 10, label %15
    i32 11, label %16
  ]

10:                                               ; preds = %1, %1
  store i64 1, ptr %3, align 8
  br label %27

11:                                               ; preds = %1, %1
  store i64 2, ptr %3, align 8
  br label %27

12:                                               ; preds = %1, %1
  store i64 4, ptr %3, align 8
  br label %27

13:                                               ; preds = %1, %1
  store i64 8, ptr %3, align 8
  br label %27

14:                                               ; preds = %1
  store i64 2, ptr %3, align 8
  br label %27

15:                                               ; preds = %1
  store i64 4, ptr %3, align 8
  br label %27

16:                                               ; preds = %1
  store i64 8, ptr %3, align 8
  br label %27

17:                                               ; preds = %1
  br label %18

18:                                               ; preds = %17
  %19 = load ptr, ptr @_ZN7mitsuba6Bitmap7m_classE, align 8
  %20 = getelementptr inbounds %"class.mitsuba::Bitmap", ptr %7, i32 0, i32 3
  call void @_ZN10tinyformat6formatIJN7mitsuba6Struct4TypeEEEENSt3__112basic_stringIcNS4_11char_traitsIcEENS4_9allocatorIcEEEEPKcDpRKT_(ptr dead_on_unwind writable sret(%"class.std::__1::basic_string") align 8 %4, ptr noundef @.str.14, ptr noundef nonnull align 4 dereferenceable(4) %20)
  invoke void @_ZN7mitsuba6detail5ThrowENS_8LogLevelEPKNS_5ClassEPKciRKNSt3__112basic_stringIcNS7_11char_traitsIcEENS7_9allocatorIcEEEE(i32 noundef 400, ptr noundef %19, ptr noundef @.str.10, i32 noundef 233, ptr noundef nonnull align 8 dereferenceable(24) %4) #32
          to label %21 unwind label %22

21:                                               ; preds = %18
  unreachable

22:                                               ; preds = %18
  %23 = landingpad { ptr, i32 }
          cleanup
  %24 = extractvalue { ptr, i32 } %23, 0
  store ptr %24, ptr %5, align 8
  %25 = extractvalue { ptr, i32 } %23, 1
  store i32 %25, ptr %6, align 4
  call void @_ZNSt3__112basic_stringIcNS_11char_traitsIcEENS_9allocatorIcEEED1Ev(ptr noundef nonnull align 8 dereferenceable(24) %4) #29
  br label %31

26:                                               ; No predecessors!
  br label %27

27:                                               ; preds = %26, %16, %15, %14, %13, %12, %11, %10
  %28 = load i64, ptr %3, align 8
  %29 = call noundef i64 @_ZNK7mitsuba6Bitmap13channel_countEv(ptr noundef nonnull align 8 dereferenceable(64) %7)
  %30 = mul i64 %28, %29
  ret i64 %30

31:                                               ; preds = %22
  %32 = load ptr, ptr %5, align 8
  %33 = load i32, ptr %6, align 4
  %34 = insertvalue { ptr, i32 } poison, ptr %32, 0
  %35 = insertvalue { ptr, i32 } %34, i32 %33, 1
  resume { ptr, i32 } %35
}