; Function Attrs: mustprogress uwtable
define noundef i64 @_ZNK7mitsuba6Bitmap15bytes_per_pixelEv(ptr noundef nonnull align 8 dereferenceable(64) %0) local_unnamed_addr #0 align 2 personality ptr @__gxx_personality_v0 {
  %2 = alloca %"class.std::__1::basic_string", align 8
  %3 = getelementptr inbounds i8, ptr %0, i64 28
  %4 = load i32, ptr %3, align 4
  %switch.tableidx = add i32 %4, -1
  %5 = icmp ult i32 %switch.tableidx, 11
  br i1 %5, label %switch.lookup, label %6

6:                                                ; preds = %1
  %7 = load ptr, ptr @_ZN7mitsuba6Bitmap7m_classE, align 8
  call void @_ZN10tinyformat6formatIJN7mitsuba6Struct4TypeEEEENSt3__112basic_stringIcNS4_11char_traitsIcEENS4_9allocatorIcEEEEPKcDpRKT_(ptr dead_on_unwind nonnull writable sret(%"class.std::__1::basic_string") align 8 %2, ptr noundef nonnull @.str.14, ptr noundef nonnull align 4 dereferenceable(4) %3)
  invoke void @_ZN7mitsuba6detail5ThrowENS_8LogLevelEPKNS_5ClassEPKciRKNSt3__112basic_stringIcNS7_11char_traitsIcEENS7_9allocatorIcEEEE(i32 noundef 400, ptr noundef %7, ptr noundef nonnull @.str.10, i32 noundef 233, ptr noundef nonnull align 8 dereferenceable(24) %2) #37
          to label %8 unwind label %9

8:                                                ; preds = %6
  unreachable

9:                                                ; preds = %6
  %10 = landingpad { ptr, i32 }
          cleanup
  call void @_ZNSt3__112basic_stringIcNS_11char_traitsIcEENS_9allocatorIcEEED1Ev(ptr noundef nonnull align 8 dereferenceable(24) %2) #36
  resume { ptr, i32 } %10

switch.lookup:                                    ; preds = %1
  %11 = zext nneg i32 %switch.tableidx to i64
  %switch.gep = getelementptr inbounds [11 x i64], ptr @switch.table._ZN7mitsuba6Bitmap8read_exrEPNS_6StreamE.81, i64 0, i64 %11
  %switch.load = load i64, ptr %switch.gep, align 8
  %12 = getelementptr inbounds i8, ptr %0, i64 40
  %13 = load ptr, ptr %12, align 8
  %14 = getelementptr inbounds i8, ptr %13, i64 16
  %15 = getelementptr inbounds i8, ptr %13, i64 24
  %16 = load ptr, ptr %15, align 8
  %17 = load ptr, ptr %14, align 8
  %18 = ptrtoint ptr %16 to i64
  %19 = ptrtoint ptr %17 to i64
  %20 = sub i64 %18, %19
  %21 = sdiv exact i64 %20, 88
  %22 = mul nsw i64 %21, %switch.load
  ret i64 %22
}